	.file	"4_7.c"
	.text
	.section	.rodata
.LC0:
	.string	"%d"
.LC1:
	.string	"compute %d\n"
	.text
	.globl	main
	.type	main, @function
main:
.LFB0:
	.cfi_startproc
	endbr64
	pushq	%rbp
	.cfi_def_cfa_offset 16
	.cfi_offset 6, -16
	movq	%rsp, %rbp
	.cfi_def_cfa_register 6
	pushq	%rbx
	subq	$24, %rsp
	.cfi_offset 3, -24
	movq	%fs:40, %rax
	movq	%rax, -24(%rbp)
	xorl	%eax, %eax
	leaq	-28(%rbp), %rax
	movq	%rax, %rsi
	leaq	.LC0(%rip), %rax
	movq	%rax, %rdi
	movl	$0, %eax
	call	__isoc99_scanf@PLT
	movl	-28(%rbp), %eax
	movl	%eax, %esi
	leaq	.LC1(%rip), %rax
	movq	%rax, %rdi
	movl	$0, %eax
	call	printf@PLT
	movl	$0, %ebx
	jmp	.L2
.L4:
	movl	-28(%rbp), %eax
	imull	$22, %eax, %eax
	movslq	%eax, %rdx
	imulq	$-1840700269, %rdx, %rdx
	shrq	$32, %rdx
	addl	%eax, %edx
	sarl	$2, %edx
	sarl	$31, %eax
	movl	%eax, %ecx
	movl	%edx, %eax
	subl	%ecx, %eax
	movl	%eax, -28(%rbp)
	movl	-28(%rbp), %eax
	cmpl	$1000, %eax
	jle	.L3
	movl	-28(%rbp), %edx
	movslq	%edx, %rax
	imulq	$274877907, %rax, %rax
	shrq	$32, %rax
	sarl	$6, %eax
	movl	%edx, %ecx
	sarl	$31, %ecx
	subl	%ecx, %eax
	imull	$1000, %eax, %ecx
	movl	%edx, %eax
	subl	%ecx, %eax
	movl	%eax, -28(%rbp)
.L3:
	addl	$1, %ebx
.L2:
	cmpl	$999, %ebx
	jle	.L4
	movl	-28(%rbp), %eax
	movl	%eax, %esi
	leaq	.LC1(%rip), %rax
	movq	%rax, %rdi
	movl	$0, %eax
	call	printf@PLT
	movl	$0, %eax
	movq	-24(%rbp), %rdx
	subq	%fs:40, %rdx
	je	.L6
	call	__stack_chk_fail@PLT
.L6:
	movq	-8(%rbp), %rbx
	leave
	.cfi_def_cfa 7, 8
	ret
	.cfi_endproc
.LFE0:
	.size	main, .-main
	.ident	"GCC: (Ubuntu 11.4.0-1ubuntu1~22.04) 11.4.0"
	.section	.note.GNU-stack,"",@progbits
	.section	.note.gnu.property,"a"
	.align 8
	.long	1f - 0f
	.long	4f - 1f
	.long	5
0:
	.string	"GNU"
1:
	.align 8
	.long	0xc0000002
	.long	3f - 2f
2:
	.long	0x3
3:
	.align 8
4:
